target datalayout = "e-m:e-p270:32:32-p271:32:32-p272:64:64-i64:64-i128:128-f80:128-n8:16:32:64-S128"
target triple = "x86_64-pc-linux-gnu"

; Function Attrs: mustprogress uwtable
define noundef i32 @_Z10xdr_vectorP3XDRPcjjPFiS0_PvzE(ptr noundef %0, ptr noundef %1, i32 noundef %2, i32 noundef %3, ptr noundef %4) #0 {
  %6 = alloca i32, align 4
  %7 = alloca ptr, align 8
  %8 = alloca ptr, align 8
  %9 = alloca i32, align 4
  %10 = alloca i32, align 4
  %11 = alloca ptr, align 8
  %12 = alloca i32, align 4
  %13 = alloca ptr, align 8
  store ptr %0, ptr %7, align 8
  store ptr %1, ptr %8, align 8
  store i32 %2, ptr %9, align 4
  store i32 %3, ptr %10, align 4
  store ptr %4, ptr %11, align 8
  %14 = load ptr, ptr %8, align 8
  store ptr %14, ptr %13, align 8
  store i32 0, ptr %12, align 4
  br label %15

15:                                               ; preds = %31, %5
  %16 = load i32, ptr %12, align 4
  %17 = load i32, ptr %9, align 4
  %18 = icmp ult i32 %16, %17
  br i1 %18, label %19, label %34

19:                                               ; preds = %15
  %20 = load ptr, ptr %11, align 8
  %21 = load ptr, ptr %7, align 8
  %22 = load ptr, ptr %13, align 8
  %23 = call noundef i32 (ptr, ptr, ...) %20(ptr noundef %21, ptr noundef %22, i32 noundef -1)
  %24 = icmp ne i32 %23, 0
  br i1 %24, label %26, label %25

25:                                               ; preds = %19
  store i32 0, ptr %6, align 4
  br label %35

26:                                               ; preds = %19
  %27 = load i32, ptr %10, align 4
  %28 = load ptr, ptr %13, align 8
  %29 = zext i32 %27 to i64
  %30 = getelementptr inbounds i8, ptr %28, i64 %29
  store ptr %30, ptr %13, align 8
  br label %31

31:                                               ; preds = %26
  %32 = load i32, ptr %12, align 4
  %33 = add i32 %32, 1
  store i32 %33, ptr %12, align 4
  br label %15, !llvm.loop !5

34:                                               ; preds = %15
  store i32 1, ptr %6, align 4
  br label %35

35:                                               ; preds = %34, %25
  %36 = load i32, ptr %6, align 4
  ret i32 %36
}