; Function Attrs: mustprogress uwtable
define noundef i32 @_Z10xdr_vectorP3XDRPcjjPFiS0_PvzE(ptr noundef %0, ptr noundef %1, i32 noundef %2, i32 noundef %3, ptr nocapture noundef readonly %4) local_unnamed_addr #0 {
  %.not15 = icmp eq i32 %2, 0
  br i1 %.not15, label %._crit_edge, label %.lr.ph

.lr.ph:                                           ; preds = %5
  %6 = zext i32 %3 to i64
  br label %7

7:                                                ; preds = %.lr.ph, %9
  %.012 = phi ptr [ %1, %.lr.ph ], [ %10, %9 ]
  %.0911 = phi i32 [ 0, %.lr.ph ], [ %11, %9 ]
  %8 = tail call noundef i32 (ptr, ptr, ...) %4(ptr noundef %0, ptr noundef %.012, i32 noundef -1)
  %.not = icmp eq i32 %8, 0
  br i1 %.not, label %._crit_edge, label %9

9:                                                ; preds = %7
  %10 = getelementptr inbounds i8, ptr %.012, i64 %6
  %11 = add nuw i32 %.0911, 1
  %exitcond.not = icmp eq i32 %11, %2
  br i1 %exitcond.not, label %._crit_edge, label %7, !llvm.loop !5

._crit_edge:                                      ; preds = %7, %9, %5
  %.010 = phi i32 [ 1, %5 ], [ 1, %9 ], [ 0, %7 ]
  ret i32 %.010
}